target datalayout = "e-m:e-p270:32:32-p271:32:32-p272:64:64-i64:64-i128:128-f80:128-n8:16:32:64-S128"
target triple = "x86_64-unknown-linux-gnu"

%struct.FLAC__StreamMetadata = type { i32, i32, i32, %union.anon }
%union.anon = type { %struct.FLAC__StreamMetadata_CueSheet }
%struct.FLAC__StreamMetadata_CueSheet = type { [129 x i8], i64, i32, i32, ptr }
%"class.FLAC::Metadata::Prototype" = type <{ ptr, ptr, i8, [7 x i8] }>
%"class.FLAC::Metadata::SimpleIterator" = type { ptr, ptr }

@_ZTVN4FLAC8Metadata9PrototypeE = unnamed_addr constant { [5 x ptr] } { [5 x ptr] [ptr null, ptr @_ZTIN4FLAC8Metadata9PrototypeE, ptr @_ZN4FLAC8Metadata9Prototype5clearEv, ptr @_ZN4FLAC8Metadata9PrototypeD1Ev, ptr @_ZN4FLAC8Metadata9PrototypeD0Ev] }, align 8
@_ZTVN4FLAC8Metadata10StreamInfoE = unnamed_addr constant { [5 x ptr] } { [5 x ptr] [ptr null, ptr @_ZTIN4FLAC8Metadata10StreamInfoE, ptr @_ZN4FLAC8Metadata9Prototype5clearEv, ptr @_ZN4FLAC8Metadata10StreamInfoD1Ev, ptr @_ZN4FLAC8Metadata10StreamInfoD0Ev] }, align 8
@_ZTVN4FLAC8Metadata7PaddingE = unnamed_addr constant { [5 x ptr] } { [5 x ptr] [ptr null, ptr @_ZTIN4FLAC8Metadata7PaddingE, ptr @_ZN4FLAC8Metadata9Prototype5clearEv, ptr @_ZN4FLAC8Metadata7PaddingD1Ev, ptr @_ZN4FLAC8Metadata7PaddingD0Ev] }, align 8
@_ZTVN4FLAC8Metadata11ApplicationE = unnamed_addr constant { [5 x ptr] } { [5 x ptr] [ptr null, ptr @_ZTIN4FLAC8Metadata11ApplicationE, ptr @_ZN4FLAC8Metadata9Prototype5clearEv, ptr @_ZN4FLAC8Metadata11ApplicationD1Ev, ptr @_ZN4FLAC8Metadata11ApplicationD0Ev] }, align 8
@_ZTVN4FLAC8Metadata9SeekTableE = unnamed_addr constant { [5 x ptr] } { [5 x ptr] [ptr null, ptr @_ZTIN4FLAC8Metadata9SeekTableE, ptr @_ZN4FLAC8Metadata9Prototype5clearEv, ptr @_ZN4FLAC8Metadata9SeekTableD1Ev, ptr @_ZN4FLAC8Metadata9SeekTableD0Ev] }, align 8
@_ZTVN4FLAC8Metadata13VorbisCommentE = unnamed_addr constant { [5 x ptr] } { [5 x ptr] [ptr null, ptr @_ZTIN4FLAC8Metadata13VorbisCommentE, ptr @_ZN4FLAC8Metadata9Prototype5clearEv, ptr @_ZN4FLAC8Metadata13VorbisCommentD1Ev, ptr @_ZN4FLAC8Metadata13VorbisCommentD0Ev] }, align 8
@_ZTVN4FLAC8Metadata8CueSheetE = unnamed_addr constant { [5 x ptr] } { [5 x ptr] [ptr null, ptr @_ZTIN4FLAC8Metadata8CueSheetE, ptr @_ZN4FLAC8Metadata9Prototype5clearEv, ptr @_ZN4FLAC8Metadata8CueSheetD1Ev, ptr @_ZN4FLAC8Metadata8CueSheetD0Ev] }, align 8
@_ZTVN4FLAC8Metadata7PictureE = unnamed_addr constant { [5 x ptr] } { [5 x ptr] [ptr null, ptr @_ZTIN4FLAC8Metadata7PictureE, ptr @_ZN4FLAC8Metadata9Prototype5clearEv, ptr @_ZN4FLAC8Metadata7PictureD1Ev, ptr @_ZN4FLAC8Metadata7PictureD0Ev] }, align 8
@_ZTVN4FLAC8Metadata7UnknownE = unnamed_addr constant { [5 x ptr] } { [5 x ptr] [ptr null, ptr @_ZTIN4FLAC8Metadata7UnknownE, ptr @_ZN4FLAC8Metadata9Prototype5clearEv, ptr @_ZN4FLAC8Metadata7UnknownD1Ev, ptr @_ZN4FLAC8Metadata7UnknownD0Ev] }, align 8

; Function Attrs: mustprogress sspstrong uwtable
define void @_ZN4FLAC8Metadata9PrototypeC2EP20FLAC__StreamMetadatab(ptr noundef nonnull align 8 dereferenceable(17) %this, ptr noundef %object, i1 noundef zeroext %copy) unnamed_addr #0 align 2 {
entry:
  %this.addr = alloca ptr, align 8
  %object.addr = alloca ptr, align 8
  %copy.addr = alloca i8, align 1
  store ptr %this, ptr %this.addr, align 8
  store ptr %object, ptr %object.addr, align 8
  %frombool = zext i1 %copy to i8
  store i8 %frombool, ptr %copy.addr, align 1
  %this1 = load ptr, ptr %this.addr, align 8
  store ptr getelementptr inbounds ({ [5 x ptr] }, ptr @_ZTVN4FLAC8Metadata9PrototypeE, i32 0, i32 0, i32 2), ptr %this1, align 8
  %object_ = getelementptr inbounds %"class.FLAC::Metadata::Prototype", ptr %this1, i32 0, i32 1
  %0 = load i8, ptr %copy.addr, align 1
  %tobool = trunc i8 %0 to i1
  br i1 %tobool, label %cond.true, label %cond.false

cond.true:                                        ; preds = %entry
  %1 = load ptr, ptr %object.addr, align 8
  %call = call ptr @FLAC__metadata_object_clone(ptr noundef %1)
  br label %cond.end

cond.false:                                       ; preds = %entry
  %2 = load ptr, ptr %object.addr, align 8
  br label %cond.end

cond.end:                                         ; preds = %cond.false, %cond.true
  %cond = phi ptr [ %call, %cond.true ], [ %2, %cond.false ]
  store ptr %cond, ptr %object_, align 8
  %is_reference_ = getelementptr inbounds %"class.FLAC::Metadata::Prototype", ptr %this1, i32 0, i32 2
  store i8 0, ptr %is_reference_, align 8
  ret void
}

; Function Attrs: mustprogress sspstrong uwtable
define linkonce_odr void @_ZN4FLAC8Metadata7UnknownC2EP20FLAC__StreamMetadatab(ptr noundef nonnull align 8 dereferenceable(17) %this, ptr noundef %object, i1 noundef zeroext %copy) unnamed_addr #0 comdat align 2 {
entry:
  %this.addr = alloca ptr, align 8
  %object.addr = alloca ptr, align 8
  %copy.addr = alloca i8, align 1
  store ptr %this, ptr %this.addr, align 8
  store ptr %object, ptr %object.addr, align 8
  %frombool = zext i1 %copy to i8
  store i8 %frombool, ptr %copy.addr, align 1
  %this1 = load ptr, ptr %this.addr, align 8
  %0 = load ptr, ptr %object.addr, align 8
  %1 = load i8, ptr %copy.addr, align 1
  %tobool = trunc i8 %1 to i1
  call void @_ZN4FLAC8Metadata9PrototypeC2EP20FLAC__StreamMetadatab(ptr noundef nonnull align 8 dereferenceable(17) %this1, ptr noundef %0, i1 noundef zeroext %tobool)
  store ptr getelementptr inbounds ({ [5 x ptr] }, ptr @_ZTVN4FLAC8Metadata7UnknownE, i32 0, i32 0, i32 2), ptr %this1, align 8
  ret void
}

; Function Attrs: mustprogress sspstrong uwtable
define linkonce_odr void @_ZN4FLAC8Metadata7PictureC2EP20FLAC__StreamMetadatab(ptr noundef nonnull align 8 dereferenceable(17) %this, ptr noundef %object, i1 noundef zeroext %copy) unnamed_addr #0 comdat align 2 {
entry:
  %this.addr = alloca ptr, align 8
  %object.addr = alloca ptr, align 8
  %copy.addr = alloca i8, align 1
  store ptr %this, ptr %this.addr, align 8
  store ptr %object, ptr %object.addr, align 8
  %frombool = zext i1 %copy to i8
  store i8 %frombool, ptr %copy.addr, align 1
  %this1 = load ptr, ptr %this.addr, align 8
  %0 = load ptr, ptr %object.addr, align 8
  %1 = load i8, ptr %copy.addr, align 1
  %tobool = trunc i8 %1 to i1
  call void @_ZN4FLAC8Metadata9PrototypeC2EP20FLAC__StreamMetadatab(ptr noundef nonnull align 8 dereferenceable(17) %this1, ptr noundef %0, i1 noundef zeroext %tobool)
  store ptr getelementptr inbounds ({ [5 x ptr] }, ptr @_ZTVN4FLAC8Metadata7PictureE, i32 0, i32 0, i32 2), ptr %this1, align 8
  ret void
}

; Function Attrs: mustprogress sspstrong uwtable
define linkonce_odr void @_ZN4FLAC8Metadata8CueSheetC2EP20FLAC__StreamMetadatab(ptr noundef nonnull align 8 dereferenceable(17) %this, ptr noundef %object, i1 noundef zeroext %copy) unnamed_addr #0 comdat align 2 {
entry:
  %this.addr = alloca ptr, align 8
  %object.addr = alloca ptr, align 8
  %copy.addr = alloca i8, align 1
  store ptr %this, ptr %this.addr, align 8
  store ptr %object, ptr %object.addr, align 8
  %frombool = zext i1 %copy to i8
  store i8 %frombool, ptr %copy.addr, align 1
  %this1 = load ptr, ptr %this.addr, align 8
  %0 = load ptr, ptr %object.addr, align 8
  %1 = load i8, ptr %copy.addr, align 1
  %tobool = trunc i8 %1 to i1
  call void @_ZN4FLAC8Metadata9PrototypeC2EP20FLAC__StreamMetadatab(ptr noundef nonnull align 8 dereferenceable(17) %this1, ptr noundef %0, i1 noundef zeroext %tobool)
  store ptr getelementptr inbounds ({ [5 x ptr] }, ptr @_ZTVN4FLAC8Metadata8CueSheetE, i32 0, i32 0, i32 2), ptr %this1, align 8
  ret void
}

; Function Attrs: mustprogress sspstrong uwtable
define linkonce_odr void @_ZN4FLAC8Metadata13VorbisCommentC2EP20FLAC__StreamMetadatab(ptr noundef nonnull align 8 dereferenceable(17) %this, ptr noundef %object, i1 noundef zeroext %copy) unnamed_addr #0 comdat align 2 {
entry:
  %this.addr = alloca ptr, align 8
  %object.addr = alloca ptr, align 8
  %copy.addr = alloca i8, align 1
  store ptr %this, ptr %this.addr, align 8
  store ptr %object, ptr %object.addr, align 8
  %frombool = zext i1 %copy to i8
  store i8 %frombool, ptr %copy.addr, align 1
  %this1 = load ptr, ptr %this.addr, align 8
  %0 = load ptr, ptr %object.addr, align 8
  %1 = load i8, ptr %copy.addr, align 1
  %tobool = trunc i8 %1 to i1
  call void @_ZN4FLAC8Metadata9PrototypeC2EP20FLAC__StreamMetadatab(ptr noundef nonnull align 8 dereferenceable(17) %this1, ptr noundef %0, i1 noundef zeroext %tobool)
  store ptr getelementptr inbounds ({ [5 x ptr] }, ptr @_ZTVN4FLAC8Metadata13VorbisCommentE, i32 0, i32 0, i32 2), ptr %this1, align 8
  ret void
}

; Function Attrs: mustprogress sspstrong uwtable
define linkonce_odr void @_ZN4FLAC8Metadata9SeekTableC2EP20FLAC__StreamMetadatab(ptr noundef nonnull align 8 dereferenceable(17) %this, ptr noundef %object, i1 noundef zeroext %copy) unnamed_addr #0 comdat align 2 {
entry:
  %this.addr = alloca ptr, align 8
  %object.addr = alloca ptr, align 8
  %copy.addr = alloca i8, align 1
  store ptr %this, ptr %this.addr, align 8
  store ptr %object, ptr %object.addr, align 8
  %frombool = zext i1 %copy to i8
  store i8 %frombool, ptr %copy.addr, align 1
  %this1 = load ptr, ptr %this.addr, align 8
  %0 = load ptr, ptr %object.addr, align 8
  %1 = load i8, ptr %copy.addr, align 1
  %tobool = trunc i8 %1 to i1
  call void @_ZN4FLAC8Metadata9PrototypeC2EP20FLAC__StreamMetadatab(ptr noundef nonnull align 8 dereferenceable(17) %this1, ptr noundef %0, i1 noundef zeroext %tobool)
  store ptr getelementptr inbounds ({ [5 x ptr] }, ptr @_ZTVN4FLAC8Metadata9SeekTableE, i32 0, i32 0, i32 2), ptr %this1, align 8
  ret void
}

; Function Attrs: mustprogress sspstrong uwtable
define linkonce_odr void @_ZN4FLAC8Metadata11ApplicationC2EP20FLAC__StreamMetadatab(ptr noundef nonnull align 8 dereferenceable(17) %this, ptr noundef %object, i1 noundef zeroext %copy) unnamed_addr #0 comdat align 2 {
entry:
  %this.addr = alloca ptr, align 8
  %object.addr = alloca ptr, align 8
  %copy.addr = alloca i8, align 1
  store ptr %this, ptr %this.addr, align 8
  store ptr %object, ptr %object.addr, align 8
  %frombool = zext i1 %copy to i8
  store i8 %frombool, ptr %copy.addr, align 1
  %this1 = load ptr, ptr %this.addr, align 8
  %0 = load ptr, ptr %object.addr, align 8
  %1 = load i8, ptr %copy.addr, align 1
  %tobool = trunc i8 %1 to i1
  call void @_ZN4FLAC8Metadata9PrototypeC2EP20FLAC__StreamMetadatab(ptr noundef nonnull align 8 dereferenceable(17) %this1, ptr noundef %0, i1 noundef zeroext %tobool)
  store ptr getelementptr inbounds ({ [5 x ptr] }, ptr @_ZTVN4FLAC8Metadata11ApplicationE, i32 0, i32 0, i32 2), ptr %this1, align 8
  ret void
}

; Function Attrs: mustprogress sspstrong uwtable
define linkonce_odr void @_ZN4FLAC8Metadata7PaddingC2EP20FLAC__StreamMetadatab(ptr noundef nonnull align 8 dereferenceable(17) %this, ptr noundef %object, i1 noundef zeroext %copy) unnamed_addr #0 comdat align 2 {
entry:
  %this.addr = alloca ptr, align 8
  %object.addr = alloca ptr, align 8
  %copy.addr = alloca i8, align 1
  store ptr %this, ptr %this.addr, align 8
  store ptr %object, ptr %object.addr, align 8
  %frombool = zext i1 %copy to i8
  store i8 %frombool, ptr %copy.addr, align 1
  %this1 = load ptr, ptr %this.addr, align 8
  %0 = load ptr, ptr %object.addr, align 8
  %1 = load i8, ptr %copy.addr, align 1
  %tobool = trunc i8 %1 to i1
  call void @_ZN4FLAC8Metadata9PrototypeC2EP20FLAC__StreamMetadatab(ptr noundef nonnull align 8 dereferenceable(17) %this1, ptr noundef %0, i1 noundef zeroext %tobool)
  store ptr getelementptr inbounds ({ [5 x ptr] }, ptr @_ZTVN4FLAC8Metadata7PaddingE, i32 0, i32 0, i32 2), ptr %this1, align 8
  ret void
}

; Function Attrs: mustprogress sspstrong uwtable
define linkonce_odr void @_ZN4FLAC8Metadata10StreamInfoC2EP20FLAC__StreamMetadatab(ptr noundef nonnull align 8 dereferenceable(17) %this, ptr noundef %object, i1 noundef zeroext %copy) unnamed_addr #0 comdat align 2 {
entry:
  %this.addr = alloca ptr, align 8
  %object.addr = alloca ptr, align 8
  %copy.addr = alloca i8, align 1
  store ptr %this, ptr %this.addr, align 8
  store ptr %object, ptr %object.addr, align 8
  %frombool = zext i1 %copy to i8
  store i8 %frombool, ptr %copy.addr, align 1
  %this1 = load ptr, ptr %this.addr, align 8
  %0 = load ptr, ptr %object.addr, align 8
  %1 = load i8, ptr %copy.addr, align 1
  %tobool = trunc i8 %1 to i1
  call void @_ZN4FLAC8Metadata9PrototypeC2EP20FLAC__StreamMetadatab(ptr noundef nonnull align 8 dereferenceable(17) %this1, ptr noundef %0, i1 noundef zeroext %tobool)
  store ptr getelementptr inbounds ({ [5 x ptr] }, ptr @_ZTVN4FLAC8Metadata10StreamInfoE, i32 0, i32 0, i32 2), ptr %this1, align 8
  ret void
}

; Function Attrs: mustprogress sspstrong uwtable
define hidden noundef ptr @_ZN4FLAC8Metadata5local15construct_blockEP20FLAC__StreamMetadata(ptr noundef %object) #0 personality ptr @__gxx_personality_v0 {
entry:
  %retval = alloca ptr, align 8
  %object.addr = alloca ptr, align 8
  %ret = alloca ptr, align 8
  %exn.slot = alloca ptr, align 8
  %ehselector.slot = alloca i32, align 4
  store ptr %object, ptr %object.addr, align 8
  %0 = load ptr, ptr %object.addr, align 8
  %cmp = icmp eq ptr null, %0
  br i1 %cmp, label %if.then, label %if.end

if.then:                                          ; preds = %entry
  store ptr null, ptr %retval, align 8
  br label %return

if.end:                                           ; preds = %entry
  store ptr null, ptr %ret, align 8
  %1 = load ptr, ptr %object.addr, align 8
  %type = getelementptr inbounds %struct.FLAC__StreamMetadata, ptr %1, i32 0, i32 0
  %2 = load i32, ptr %type, align 8
  switch i32 %2, label %sw.default [
    i32 0, label %sw.bb
    i32 1, label %sw.bb1
    i32 2, label %sw.bb5
    i32 3, label %sw.bb9
    i32 4, label %sw.bb13
    i32 5, label %sw.bb17
    i32 6, label %sw.bb21
  ]

sw.bb:                                            ; preds = %if.end
  %call = call noalias noundef nonnull ptr @_Znwm(i64 noundef 24) #12
  %3 = load ptr, ptr %object.addr, align 8
  invoke void @_ZN4FLAC8Metadata10StreamInfoC2EP20FLAC__StreamMetadatab(ptr noundef nonnull align 8 dereferenceable(17) %call, ptr noundef %3, i1 noundef zeroext false)
          to label %invoke.cont unwind label %lpad

invoke.cont:                                      ; preds = %sw.bb
  store ptr %call, ptr %ret, align 8
  br label %sw.epilog

lpad:                                             ; preds = %sw.bb
  %4 = landingpad { ptr, i32 }
          cleanup
  %5 = extractvalue { ptr, i32 } %4, 0
  store ptr %5, ptr %exn.slot, align 8
  %6 = extractvalue { ptr, i32 } %4, 1
  store i32 %6, ptr %ehselector.slot, align 4
  call void @_ZdlPv(ptr noundef %call) #13
  br label %eh.resume

sw.bb1:                                           ; preds = %if.end
  %call2 = call noalias noundef nonnull ptr @_Znwm(i64 noundef 24) #12
  %7 = load ptr, ptr %object.addr, align 8
  invoke void @_ZN4FLAC8Metadata7PaddingC2EP20FLAC__StreamMetadatab(ptr noundef nonnull align 8 dereferenceable(17) %call2, ptr noundef %7, i1 noundef zeroext false)
          to label %invoke.cont4 unwind label %lpad3

invoke.cont4:                                     ; preds = %sw.bb1
  store ptr %call2, ptr %ret, align 8
  br label %sw.epilog

lpad3:                                            ; preds = %sw.bb1
  %8 = landingpad { ptr, i32 }
          cleanup
  %9 = extractvalue { ptr, i32 } %8, 0
  store ptr %9, ptr %exn.slot, align 8
  %10 = extractvalue { ptr, i32 } %8, 1
  store i32 %10, ptr %ehselector.slot, align 4
  call void @_ZdlPv(ptr noundef %call2) #13
  br label %eh.resume

sw.bb5:                                           ; preds = %if.end
  %call6 = call noalias noundef nonnull ptr @_Znwm(i64 noundef 24) #12
  %11 = load ptr, ptr %object.addr, align 8
  invoke void @_ZN4FLAC8Metadata11ApplicationC2EP20FLAC__StreamMetadatab(ptr noundef nonnull align 8 dereferenceable(17) %call6, ptr noundef %11, i1 noundef zeroext false)
          to label %invoke.cont8 unwind label %lpad7

invoke.cont8:                                     ; preds = %sw.bb5
  store ptr %call6, ptr %ret, align 8
  br label %sw.epilog

lpad7:                                            ; preds = %sw.bb5
  %12 = landingpad { ptr, i32 }
          cleanup
  %13 = extractvalue { ptr, i32 } %12, 0
  store ptr %13, ptr %exn.slot, align 8
  %14 = extractvalue { ptr, i32 } %12, 1
  store i32 %14, ptr %ehselector.slot, align 4
  call void @_ZdlPv(ptr noundef %call6) #13
  br label %eh.resume

sw.bb9:                                           ; preds = %if.end
  %call10 = call noalias noundef nonnull ptr @_Znwm(i64 noundef 24) #12
  %15 = load ptr, ptr %object.addr, align 8
  invoke void @_ZN4FLAC8Metadata9SeekTableC2EP20FLAC__StreamMetadatab(ptr noundef nonnull align 8 dereferenceable(17) %call10, ptr noundef %15, i1 noundef zeroext false)
          to label %invoke.cont12 unwind label %lpad11

invoke.cont12:                                    ; preds = %sw.bb9
  store ptr %call10, ptr %ret, align 8
  br label %sw.epilog

lpad11:                                           ; preds = %sw.bb9
  %16 = landingpad { ptr, i32 }
          cleanup
  %17 = extractvalue { ptr, i32 } %16, 0
  store ptr %17, ptr %exn.slot, align 8
  %18 = extractvalue { ptr, i32 } %16, 1
  store i32 %18, ptr %ehselector.slot, align 4
  call void @_ZdlPv(ptr noundef %call10) #13
  br label %eh.resume

sw.bb13:                                          ; preds = %if.end
  %call14 = call noalias noundef nonnull ptr @_Znwm(i64 noundef 24) #12
  %19 = load ptr, ptr %object.addr, align 8
  invoke void @_ZN4FLAC8Metadata13VorbisCommentC2EP20FLAC__StreamMetadatab(ptr noundef nonnull align 8 dereferenceable(17) %call14, ptr noundef %19, i1 noundef zeroext false)
          to label %invoke.cont16 unwind label %lpad15

invoke.cont16:                                    ; preds = %sw.bb13
  store ptr %call14, ptr %ret, align 8
  br label %sw.epilog

lpad15:                                           ; preds = %sw.bb13
  %20 = landingpad { ptr, i32 }
          cleanup
  %21 = extractvalue { ptr, i32 } %20, 0
  store ptr %21, ptr %exn.slot, align 8
  %22 = extractvalue { ptr, i32 } %20, 1
  store i32 %22, ptr %ehselector.slot, align 4
  call void @_ZdlPv(ptr noundef %call14) #13
  br label %eh.resume

sw.bb17:                                          ; preds = %if.end
  %call18 = call noalias noundef nonnull ptr @_Znwm(i64 noundef 24) #12
  %23 = load ptr, ptr %object.addr, align 8
  invoke void @_ZN4FLAC8Metadata8CueSheetC2EP20FLAC__StreamMetadatab(ptr noundef nonnull align 8 dereferenceable(17) %call18, ptr noundef %23, i1 noundef zeroext false)
          to label %invoke.cont20 unwind label %lpad19

invoke.cont20:                                    ; preds = %sw.bb17
  store ptr %call18, ptr %ret, align 8
  br label %sw.epilog

lpad19:                                           ; preds = %sw.bb17
  %24 = landingpad { ptr, i32 }
          cleanup
  %25 = extractvalue { ptr, i32 } %24, 0
  store ptr %25, ptr %exn.slot, align 8
  %26 = extractvalue { ptr, i32 } %24, 1
  store i32 %26, ptr %ehselector.slot, align 4
  call void @_ZdlPv(ptr noundef %call18) #13
  br label %eh.resume

sw.bb21:                                          ; preds = %if.end
  %call22 = call noalias noundef nonnull ptr @_Znwm(i64 noundef 24) #12
  %27 = load ptr, ptr %object.addr, align 8
  invoke void @_ZN4FLAC8Metadata7PictureC2EP20FLAC__StreamMetadatab(ptr noundef nonnull align 8 dereferenceable(17) %call22, ptr noundef %27, i1 noundef zeroext false)
          to label %invoke.cont24 unwind label %lpad23

invoke.cont24:                                    ; preds = %sw.bb21
  store ptr %call22, ptr %ret, align 8
  br label %sw.epilog

lpad23:                                           ; preds = %sw.bb21
  %28 = landingpad { ptr, i32 }
          cleanup
  %29 = extractvalue { ptr, i32 } %28, 0
  store ptr %29, ptr %exn.slot, align 8
  %30 = extractvalue { ptr, i32 } %28, 1
  store i32 %30, ptr %ehselector.slot, align 4
  call void @_ZdlPv(ptr noundef %call22) #13
  br label %eh.resume

sw.default:                                       ; preds = %if.end
  %call25 = call noalias noundef nonnull ptr @_Znwm(i64 noundef 24) #12
  %31 = load ptr, ptr %object.addr, align 8
  invoke void @_ZN4FLAC8Metadata7UnknownC2EP20FLAC__StreamMetadatab(ptr noundef nonnull align 8 dereferenceable(17) %call25, ptr noundef %31, i1 noundef zeroext false)
          to label %invoke.cont27 unwind label %lpad26

invoke.cont27:                                    ; preds = %sw.default
  store ptr %call25, ptr %ret, align 8
  br label %sw.epilog

lpad26:                                           ; preds = %sw.default
  %32 = landingpad { ptr, i32 }
          cleanup
  %33 = extractvalue { ptr, i32 } %32, 0
  store ptr %33, ptr %exn.slot, align 8
  %34 = extractvalue { ptr, i32 } %32, 1
  store i32 %34, ptr %ehselector.slot, align 4
  call void @_ZdlPv(ptr noundef %call25) #13
  br label %eh.resume

sw.epilog:                                        ; preds = %invoke.cont27, %invoke.cont24, %invoke.cont20, %invoke.cont16, %invoke.cont12, %invoke.cont8, %invoke.cont4, %invoke.cont
  %35 = load ptr, ptr %ret, align 8
  store ptr %35, ptr %retval, align 8
  br label %return

return:                                           ; preds = %sw.epilog, %if.then
  %36 = load ptr, ptr %retval, align 8
  ret ptr %36

eh.resume:                                        ; preds = %lpad26, %lpad23, %lpad19, %lpad15, %lpad11, %lpad7, %lpad3, %lpad
  %exn = load ptr, ptr %exn.slot, align 8
  %sel = load i32, ptr %ehselector.slot, align 4
  %lpad.val = insertvalue { ptr, i32 } poison, ptr %exn, 0
  %lpad.val28 = insertvalue { ptr, i32 } %lpad.val, i32 %sel, 1
  resume { ptr, i32 } %lpad.val28
}

; Function Attrs: mustprogress sspstrong uwtable
define noundef ptr @_ZN4FLAC8Metadata14SimpleIterator9get_blockEv(ptr noundef nonnull align 8 dereferenceable(16) %this) #0 align 2 {
entry:
  %this.addr = alloca ptr, align 8
  store ptr %this, ptr %this.addr, align 8
  %this1 = load ptr, ptr %this.addr, align 8
  %iterator_ = getelementptr inbounds %"class.FLAC::Metadata::SimpleIterator", ptr %this1, i32 0, i32 1
  %0 = load ptr, ptr %iterator_, align 8
  %call = call ptr @FLAC__metadata_simple_iterator_get_block(ptr noundef %0)
  %call2 = call noundef ptr @_ZN4FLAC8Metadata5local15construct_blockEP20FLAC__StreamMetadata(ptr noundef %call)
  ret ptr %call2
}