; Function Attrs: mustprogress sspstrong uwtable
define noalias noundef ptr @_ZN4FLAC8Metadata14SimpleIterator9get_blockEv(ptr nocapture noundef nonnull readonly align 8 dereferenceable(16) %this) local_unnamed_addr #0 align 2 personality ptr @__gxx_personality_v0 {
entry:
  %iterator_ = getelementptr inbounds i8, ptr %this, i64 8
  %0 = load ptr, ptr %iterator_, align 8
  %call = tail call ptr @FLAC__metadata_simple_iterator_get_block(ptr noundef %0)
  %cmp.i = icmp eq ptr %call, null
  br i1 %cmp.i, label %_ZN4FLAC8Metadata5local15construct_blockEP20FLAC__StreamMetadata.exit, label %if.end.i

if.end.i:                                         ; preds = %entry
  %1 = load i32, ptr %call, align 8
  %call25.i = tail call noalias noundef nonnull dereferenceable(24) ptr @_Znwm(i64 noundef 24) #19
  %object_.i.i23.i = getelementptr inbounds i8, ptr %call25.i, i64 8
  store ptr %call, ptr %object_.i.i23.i, align 8
  %is_reference_.i.i24.i = getelementptr inbounds i8, ptr %call25.i, i64 16
  store i8 0, ptr %is_reference_.i.i24.i, align 8
  %2 = icmp ult i32 %1, 7
  br i1 %2, label %switch.lookup, label %return.sink.split.i

switch.lookup:                                    ; preds = %if.end.i
  %3 = zext nneg i32 %1 to i64
  %switch.gep = getelementptr inbounds [7 x ptr], ptr @switch.table._ZN4FLAC8Metadata8Iterator9get_blockEv, i64 0, i64 %3
  %switch.load = load ptr, ptr %switch.gep, align 8
  br label %return.sink.split.i

return.sink.split.i:                              ; preds = %if.end.i, %switch.lookup
  %.sink.i = phi ptr [ %switch.load, %switch.lookup ], [ getelementptr inbounds ({ [5 x ptr] }, ptr @_ZTVN4FLAC8Metadata7UnknownE, i64 0, i32 0, i64 2), %if.end.i ]
  store ptr %.sink.i, ptr %call25.i, align 8
  br label %_ZN4FLAC8Metadata5local15construct_blockEP20FLAC__StreamMetadata.exit

_ZN4FLAC8Metadata5local15construct_blockEP20FLAC__StreamMetadata.exit: ; preds = %entry, %return.sink.split.i
  %retval.0.i = phi ptr [ null, %entry ], [ %call25.i, %return.sink.split.i ]
  ret ptr %retval.0.i
}